target datalayout = "e-m:e-p270:32:32-p271:32:32-p272:64:64-i64:64-i128:128-f80:128-n8:16:32:64-S128"
target triple = "x86_64-pc-linux-gnu"

%class.ref_manager_wrapper = type { ptr }
%class.ref_vector_core = type { %class.ref_manager_wrapper, %class.ptr_vector }
%class.ptr_vector = type { %class.vector }
%class.vector = type { ptr }
%class.obj_equiv_class = type { %class.basic_union_find, %class.obj_map.28, %class.ref_vector }
%class.basic_union_find = type { %class.svector.19, %class.svector.19, %class.svector.19 }
%class.svector.19 = type { %class.vector.20 }
%class.vector.20 = type { ptr }
%class.obj_map.28 = type { %class.core_hashtable.29 }
%class.core_hashtable.29 = type <{ ptr, i32, i32, i32, [4 x i8] }>
%class.ref_vector = type { %class.ref_vector_core }
%"class.obj_equiv_class<expr, ast_manager>::iterator" = type <{ ptr, i32, i8, [3 x i8] }>
%"class.obj_equiv_class<expr, ast_manager>::eq_class" = type { %"class.obj_equiv_class<expr, ast_manager>::iterator", %"class.obj_equiv_class<expr, ast_manager>::iterator" }

; Function Attrs: mustprogress nounwind uwtable
define linkonce_odr hidden noundef i32 @_ZNK6vectorIjLb0EjE4sizeEv(ptr noundef nonnull align 8 dereferenceable(8) %0) #6 comdat align 2 {
  %2 = alloca i32, align 4
  %3 = alloca ptr, align 8
  store ptr %0, ptr %3, align 8, !tbaa !101
  %4 = load ptr, ptr %3, align 8
  %5 = getelementptr inbounds nuw %class.vector.20, ptr %4, i32 0, i32 0
  %6 = load ptr, ptr %5, align 8, !tbaa !106
  %7 = icmp eq ptr %6, null
  br i1 %7, label %8, label %9

8:                                                ; preds = %1
  store i32 0, ptr %2, align 4
  br label %14

9:                                                ; preds = %1
  %10 = getelementptr inbounds nuw %class.vector.20, ptr %4, i32 0, i32 0
  %11 = load ptr, ptr %10, align 8, !tbaa !106
  %12 = getelementptr inbounds i32, ptr %11, i64 -1
  %13 = load i32, ptr %12, align 4, !tbaa !14
  store i32 %13, ptr %2, align 4
  br label %14

14:                                               ; preds = %9, %8
  %15 = load i32, ptr %2, align 4
  ret i32 %15
}

; Function Attrs: mustprogress nounwind uwtable
define linkonce_odr hidden noundef nonnull align 8 dereferenceable(8) ptr @_ZNK6vectorIP4exprLb0EjEixEj(ptr noundef nonnull align 8 dereferenceable(8) %0, i32 noundef %1) #6 comdat align 2 {
  %3 = alloca ptr, align 8
  %4 = alloca i32, align 4
  store ptr %0, ptr %3, align 8, !tbaa !99
  store i32 %1, ptr %4, align 4, !tbaa !14
  %5 = load ptr, ptr %3, align 8
  %6 = getelementptr inbounds nuw %class.vector, ptr %5, i32 0, i32 0
  %7 = load ptr, ptr %6, align 8, !tbaa !111
  %8 = load i32, ptr %4, align 4, !tbaa !14
  %9 = zext i32 %8 to i64
  %10 = getelementptr inbounds nuw ptr, ptr %7, i64 %9
  ret ptr %10
}

; Function Attrs: mustprogress nounwind uwtable
define linkonce_odr hidden noundef nonnull align 4 dereferenceable(4) ptr @_ZNK6vectorIjLb0EjEixEj(ptr noundef nonnull align 8 dereferenceable(8) %0, i32 noundef %1) #6 comdat align 2 {
  %3 = alloca ptr, align 8
  %4 = alloca i32, align 4
  store ptr %0, ptr %3, align 8, !tbaa !101
  store i32 %1, ptr %4, align 4, !tbaa !14
  %5 = load ptr, ptr %3, align 8
  %6 = getelementptr inbounds nuw %class.vector.20, ptr %5, i32 0, i32 0
  %7 = load ptr, ptr %6, align 8, !tbaa !106
  %8 = load i32, ptr %4, align 4, !tbaa !14
  %9 = zext i32 %8 to i64
  %10 = getelementptr inbounds nuw i32, ptr %7, i64 %9
  ret ptr %10
}

; Function Attrs: mustprogress nounwind uwtable
define linkonce_odr hidden noundef i32 @_ZNK16basic_union_find12get_num_varsEv(ptr noundef nonnull align 8 dereferenceable(24) %0) #6 comdat align 2 {
  %2 = alloca ptr, align 8
  store ptr %0, ptr %2, align 8, !tbaa !199
  %3 = load ptr, ptr %2, align 8
  %4 = getelementptr inbounds nuw %class.basic_union_find, ptr %3, i32 0, i32 0
  %5 = call noundef i32 @_ZNK6vectorIjLb0EjE4sizeEv(ptr noundef nonnull align 8 dereferenceable(8) %4)
  ret i32 %5
}

; Function Attrs: mustprogress nounwind uwtable
define linkonce_odr hidden noundef ptr @_ZNK15ref_vector_coreI4expr19ref_manager_wrapperIS0_11ast_managerEEixEj(ptr noundef nonnull align 8 dereferenceable(16) %0, i32 noundef %1) #6 comdat align 2 {
  %3 = alloca ptr, align 8
  %4 = alloca i32, align 4
  store ptr %0, ptr %3, align 8, !tbaa !20
  store i32 %1, ptr %4, align 4, !tbaa !14
  %5 = load ptr, ptr %3, align 8
  %6 = getelementptr inbounds nuw %class.ref_vector_core, ptr %5, i32 0, i32 1
  %7 = load i32, ptr %4, align 4, !tbaa !14
  %8 = call noundef nonnull align 8 dereferenceable(8) ptr @_ZNK6vectorIP4exprLb0EjEixEj(ptr noundef nonnull align 8 dereferenceable(8) %6, i32 noundef %7)
  %9 = load ptr, ptr %8, align 8, !tbaa !12
  ret ptr %9
}

; Function Attrs: mustprogress nounwind uwtable
define linkonce_odr hidden noundef i32 @_ZNK16basic_union_find4nextEj(ptr noundef nonnull align 8 dereferenceable(24) %0, i32 noundef %1) #6 comdat align 2 {
  %3 = alloca i32, align 4
  %4 = alloca ptr, align 8
  %5 = alloca i32, align 4
  store ptr %0, ptr %4, align 8, !tbaa !199
  store i32 %1, ptr %5, align 4, !tbaa !14
  %6 = load ptr, ptr %4, align 8
  %7 = load i32, ptr %5, align 4, !tbaa !14
  %8 = call noundef i32 @_ZNK16basic_union_find12get_num_varsEv(ptr noundef nonnull align 8 dereferenceable(24) %6)
  %9 = icmp uge i32 %7, %8
  br i1 %9, label %10, label %12

10:                                               ; preds = %2
  %11 = load i32, ptr %5, align 4, !tbaa !14
  store i32 %11, ptr %3, align 4
  br label %17

12:                                               ; preds = %2
  %13 = getelementptr inbounds nuw %class.basic_union_find, ptr %6, i32 0, i32 2
  %14 = load i32, ptr %5, align 4, !tbaa !14
  %15 = call noundef nonnull align 4 dereferenceable(4) ptr @_ZNK6vectorIjLb0EjEixEj(ptr noundef nonnull align 8 dereferenceable(8) %13, i32 noundef %14)
  %16 = load i32, ptr %15, align 4, !tbaa !14
  store i32 %16, ptr %3, align 4
  br label %17

17:                                               ; preds = %12, %10
  %18 = load i32, ptr %3, align 4
  ret i32 %18
}

; Function Attrs: mustprogress uwtable
define linkonce_odr hidden noundef ptr @_ZNK10ref_vectorI4expr11ast_managerEixEj(ptr noundef nonnull align 8 dereferenceable(16) %0, i32 noundef %1) #4 comdat align 2 {
  %3 = alloca ptr, align 8
  %4 = alloca i32, align 4
  store ptr %0, ptr %3, align 8, !tbaa !3
  store i32 %1, ptr %4, align 4, !tbaa !14
  %5 = load ptr, ptr %3, align 8
  %6 = load i32, ptr %4, align 4, !tbaa !14
  %7 = call noundef ptr @_ZNK15ref_vector_coreI4expr19ref_manager_wrapperIS0_11ast_managerEEixEj(ptr noundef nonnull align 8 dereferenceable(16) %5, i32 noundef %6)
  ret ptr %7
}

; Function Attrs: mustprogress uwtable
define linkonce_odr hidden noundef nonnull align 8 dereferenceable(13) ptr @_ZN15obj_equiv_classI4expr11ast_managerE8iteratorppEv(ptr noundef nonnull align 8 dereferenceable(13) %0) #4 comdat align 2 {
  %2 = alloca ptr, align 8
  store ptr %0, ptr %2, align 8, !tbaa !39
  %3 = load ptr, ptr %2, align 8
  %4 = getelementptr inbounds nuw %"class.obj_equiv_class<expr, ast_manager>::iterator", ptr %3, i32 0, i32 0
  %5 = load ptr, ptr %4, align 8, !tbaa !46
  %6 = getelementptr inbounds nuw %class.obj_equiv_class, ptr %5, i32 0, i32 0
  %7 = getelementptr inbounds nuw %"class.obj_equiv_class<expr, ast_manager>::iterator", ptr %3, i32 0, i32 1
  %8 = load i32, ptr %7, align 8, !tbaa !45
  %9 = call noundef i32 @_ZNK16basic_union_find4nextEj(ptr noundef nonnull align 8 dereferenceable(24) %6, i32 noundef %8)
  %10 = getelementptr inbounds nuw %"class.obj_equiv_class<expr, ast_manager>::iterator", ptr %3, i32 0, i32 1
  store i32 %9, ptr %10, align 8, !tbaa !45
  %11 = getelementptr inbounds nuw %"class.obj_equiv_class<expr, ast_manager>::iterator", ptr %3, i32 0, i32 2
  store i8 0, ptr %11, align 4, !tbaa !41
  ret ptr %3
}

; Function Attrs: mustprogress uwtable
define linkonce_odr hidden noundef ptr @_ZN15obj_equiv_classI4expr11ast_managerE8iteratordeEv(ptr noundef nonnull align 8 dereferenceable(13) %0) #4 comdat align 2 {
  %2 = alloca ptr, align 8
  store ptr %0, ptr %2, align 8, !tbaa !39
  %3 = load ptr, ptr %2, align 8
  %4 = getelementptr inbounds nuw %"class.obj_equiv_class<expr, ast_manager>::iterator", ptr %3, i32 0, i32 0
  %5 = load ptr, ptr %4, align 8, !tbaa !46
  %6 = getelementptr inbounds nuw %class.obj_equiv_class, ptr %5, i32 0, i32 2
  %7 = getelementptr inbounds nuw %"class.obj_equiv_class<expr, ast_manager>::iterator", ptr %3, i32 0, i32 1
  %8 = load i32, ptr %7, align 8, !tbaa !45
  %9 = call noundef ptr @_ZNK10ref_vectorI4expr11ast_managerEixEj(ptr noundef nonnull align 8 dereferenceable(16) %6, i32 noundef %8)
  ret ptr %9
}

; Function Attrs: mustprogress nounwind uwtable
define linkonce_odr hidden noundef zeroext i1 @_ZNK15obj_equiv_classI4expr11ast_managerE8iteratorneERKS3_(ptr noundef nonnull align 8 dereferenceable(13) %0, ptr noundef nonnull align 8 dereferenceable(13) %1) #6 comdat align 2 {
  %3 = alloca ptr, align 8
  %4 = alloca ptr, align 8
  store ptr %0, ptr %3, align 8, !tbaa !39
  store ptr %1, ptr %4, align 8, !tbaa !39
  %5 = load ptr, ptr %3, align 8
  %6 = getelementptr inbounds nuw %"class.obj_equiv_class<expr, ast_manager>::iterator", ptr %5, i32 0, i32 2
  %7 = load i8, ptr %6, align 4, !tbaa !41, !range !43, !noundef !44
  %8 = trunc i8 %7 to i1
  %9 = zext i1 %8 to i32
  %10 = load ptr, ptr %4, align 8, !tbaa !39
  %11 = getelementptr inbounds nuw %"class.obj_equiv_class<expr, ast_manager>::iterator", ptr %10, i32 0, i32 2
  %12 = load i8, ptr %11, align 4, !tbaa !41, !range !43, !noundef !44
  %13 = trunc i8 %12 to i1
  %14 = zext i1 %13 to i32
  %15 = icmp ne i32 %9, %14
  br i1 %15, label %23, label %16

16:                                               ; preds = %2
  %17 = getelementptr inbounds nuw %"class.obj_equiv_class<expr, ast_manager>::iterator", ptr %5, i32 0, i32 1
  %18 = load i32, ptr %17, align 8, !tbaa !45
  %19 = load ptr, ptr %4, align 8, !tbaa !39
  %20 = getelementptr inbounds nuw %"class.obj_equiv_class<expr, ast_manager>::iterator", ptr %19, i32 0, i32 1
  %21 = load i32, ptr %20, align 8, !tbaa !45
  %22 = icmp ne i32 %18, %21
  br label %23

23:                                               ; preds = %16, %2
  %24 = phi i1 [ true, %2 ], [ %22, %16 ]
  ret i1 %24
}

; Function Attrs: mustprogress nounwind uwtable
define linkonce_odr hidden { ptr, i64 } @_ZN15obj_equiv_classI4expr11ast_managerE8eq_class3endEv(ptr noundef nonnull align 8 dereferenceable(32) %0) #6 comdat align 2 {
  %2 = alloca %"class.obj_equiv_class<expr, ast_manager>::iterator", align 8
  %3 = alloca ptr, align 8
  store ptr %0, ptr %3, align 8, !tbaa !34
  %4 = load ptr, ptr %3, align 8
  %5 = getelementptr inbounds nuw %"class.obj_equiv_class<expr, ast_manager>::eq_class", ptr %4, i32 0, i32 1
  call void @llvm.memcpy.p0.p0.i64(ptr align 8 %2, ptr align 8 %5, i64 16, i1 false), !tbaa.struct !36
  %6 = load { ptr, i64 }, ptr %2, align 8
  ret { ptr, i64 } %6
}

; Function Attrs: mustprogress nounwind uwtable
define linkonce_odr hidden { ptr, i64 } @_ZN15obj_equiv_classI4expr11ast_managerE8eq_class5beginEv(ptr noundef nonnull align 8 dereferenceable(32) %0) #6 comdat align 2 {
  %2 = alloca %"class.obj_equiv_class<expr, ast_manager>::iterator", align 8
  %3 = alloca ptr, align 8
  store ptr %0, ptr %3, align 8, !tbaa !34
  %4 = load ptr, ptr %3, align 8
  %5 = getelementptr inbounds nuw %"class.obj_equiv_class<expr, ast_manager>::eq_class", ptr %4, i32 0, i32 0
  call void @llvm.memcpy.p0.p0.i64(ptr align 8 %2, ptr align 8 %5, i64 16, i1 false), !tbaa.struct !36
  %6 = load { ptr, i64 }, ptr %2, align 8
  ret { ptr, i64 } %6
}

; Function Attrs: mustprogress uwtable
define hidden noundef ptr @_Z10choose_repRN15obj_equiv_classI4expr11ast_managerE8eq_classERS1_(ptr noundef nonnull align 8 dereferenceable(32) %0, ptr noundef nonnull align 8 dereferenceable(976) %1) #4 {
  %3 = alloca ptr, align 8
  %4 = alloca ptr, align 8
  %5 = alloca ptr, align 8
  %6 = alloca i32, align 4
  %7 = alloca i32, align 4
  %8 = alloca ptr, align 8
  %9 = alloca %"class.obj_equiv_class<expr, ast_manager>::iterator", align 8
  %10 = alloca { ptr, i64 }, align 8
  %11 = alloca %"class.obj_equiv_class<expr, ast_manager>::iterator", align 8
  %12 = alloca { ptr, i64 }, align 8
  %13 = alloca ptr, align 8
  store ptr %0, ptr %3, align 8, !tbaa !34
  store ptr %1, ptr %4, align 8, !tbaa !10
  call void @llvm.lifetime.start.p0(i64 8, ptr %5) #3
  store ptr null, ptr %5, align 8, !tbaa !12
  call void @llvm.lifetime.start.p0(i64 4, ptr %6) #3
  store i32 0, ptr %6, align 4, !tbaa !14
  call void @llvm.lifetime.start.p0(i64 4, ptr %7) #3
  call void @llvm.lifetime.start.p0(i64 8, ptr %8) #3
  %14 = load ptr, ptr %3, align 8, !tbaa !34
  store ptr %14, ptr %8, align 8, !tbaa !34
  call void @llvm.lifetime.start.p0(i64 16, ptr %9) #3
  %15 = load ptr, ptr %8, align 8, !tbaa !34
  %16 = call { ptr, i64 } @_ZN15obj_equiv_classI4expr11ast_managerE8eq_class5beginEv(ptr noundef nonnull align 8 dereferenceable(32) %15)
  store { ptr, i64 } %16, ptr %10, align 8
  call void @llvm.memcpy.p0.p0.i64(ptr align 8 %9, ptr align 8 %10, i64 13, i1 false)
  call void @llvm.lifetime.start.p0(i64 16, ptr %11) #3
  %17 = load ptr, ptr %8, align 8, !tbaa !34
  %18 = call { ptr, i64 } @_ZN15obj_equiv_classI4expr11ast_managerE8eq_class3endEv(ptr noundef nonnull align 8 dereferenceable(32) %17)
  store { ptr, i64 } %18, ptr %12, align 8
  call void @llvm.memcpy.p0.p0.i64(ptr align 8 %11, ptr align 8 %12, i64 13, i1 false)
  br label %19

19:                                               ; preds = %44, %2
  %20 = call noundef zeroext i1 @_ZNK15obj_equiv_classI4expr11ast_managerE8iteratorneERKS3_(ptr noundef nonnull align 8 dereferenceable(13) %9, ptr noundef nonnull align 8 dereferenceable(13) %11)
  br i1 %20, label %22, label %21

21:                                               ; preds = %19
  call void @llvm.lifetime.end.p0(i64 16, ptr %11) #3
  call void @llvm.lifetime.end.p0(i64 16, ptr %9) #3
  call void @llvm.lifetime.end.p0(i64 8, ptr %8) #3
  br label %46

22:                                               ; preds = %19
  call void @llvm.lifetime.start.p0(i64 8, ptr %13) #3
  %23 = call noundef ptr @_ZN15obj_equiv_classI4expr11ast_managerE8iteratordeEv(ptr noundef nonnull align 8 dereferenceable(13) %9)
  store ptr %23, ptr %13, align 8, !tbaa !12
  %24 = load ptr, ptr %4, align 8, !tbaa !10
  %25 = load ptr, ptr %13, align 8, !tbaa !12
  %26 = call noundef zeroext i1 @_ZNK11ast_manager8is_valueEP4expr(ptr noundef nonnull align 8 dereferenceable(976) %24, ptr noundef %25)
  br i1 %26, label %43, label %27

27:                                               ; preds = %22
  %28 = load ptr, ptr %13, align 8, !tbaa !12
  %29 = call noundef i32 @_Z13get_num_exprsP4expr(ptr noundef %28)
  store i32 %29, ptr %7, align 4, !tbaa !14
  %30 = load ptr, ptr %5, align 8, !tbaa !12
  %31 = icmp ne ptr %30, null
  br i1 %31, label %32, label %39

32:                                               ; preds = %27
  %33 = load ptr, ptr %5, align 8, !tbaa !12
  %34 = icmp ne ptr %33, null
  br i1 %34, label %35, label %42

35:                                               ; preds = %32
  %36 = load i32, ptr %6, align 4, !tbaa !14
  %37 = load i32, ptr %7, align 4, !tbaa !14
  %38 = icmp ugt i32 %36, %37
  br i1 %38, label %39, label %42

39:                                               ; preds = %35, %27
  %40 = load ptr, ptr %13, align 8, !tbaa !12
  store ptr %40, ptr %5, align 8, !tbaa !12
  %41 = load i32, ptr %7, align 4, !tbaa !14
  store i32 %41, ptr %6, align 4, !tbaa !14
  br label %42

42:                                               ; preds = %39, %35, %32
  br label %43

43:                                               ; preds = %42, %22
  call void @llvm.lifetime.end.p0(i64 8, ptr %13) #3
  br label %44

44:                                               ; preds = %43
  %45 = call noundef nonnull align 8 dereferenceable(13) ptr @_ZN15obj_equiv_classI4expr11ast_managerE8iteratorppEv(ptr noundef nonnull align 8 dereferenceable(13) %9)
  br label %19

46:                                               ; preds = %21
  %47 = load ptr, ptr %5, align 8, !tbaa !12
  call void @llvm.lifetime.end.p0(i64 4, ptr %7) #3
  call void @llvm.lifetime.end.p0(i64 4, ptr %6) #3
  call void @llvm.lifetime.end.p0(i64 8, ptr %5) #3
  ret ptr %47
}