; Function Attrs: mustprogress uwtable
define hidden noundef ptr @_Z10choose_repRN15obj_equiv_classI4expr11ast_managerE8eq_classERS1_(ptr noundef nonnull readonly align 8 captures(none) dereferenceable(32) %0, ptr noundef nonnull align 8 dereferenceable(976) %1) local_unnamed_addr #3 {
  %.sroa.0.0.copyload.i = load ptr, ptr %0, align 8, !tbaa !48
  %.sroa.2.0..sroa_idx.i = getelementptr inbounds nuw i8, ptr %0, i64 8
  %.sroa.2.0.copyload.i = load i64, ptr %.sroa.2.0..sroa_idx.i, align 8
  %.sroa.2.0..sroa_idx.i20 = getelementptr inbounds nuw i8, ptr %0, i64 24
  %.sroa.2.0.copyload.i21 = load i64, ptr %.sroa.2.0..sroa_idx.i20, align 8
  %.sroa.3.12.extract.shift30 = lshr i64 %.sroa.2.0.copyload.i21, 32
  %.sroa.3.12.extract.trunc = trunc i64 %.sroa.3.12.extract.shift30 to i8
  %.sroa.3.8.extract.trunc = trunc i64 %.sroa.2.0.copyload.i21 to i32
  %.sroa.5.12.extract.shift3139 = lshr i64 %.sroa.2.0.copyload.i, 32
  %.sroa.5.12.extract.trunc32 = trunc i64 %.sroa.5.12.extract.shift3139 to i8
  %.not.i33 = icmp ne i8 %.sroa.5.12.extract.trunc32, %.sroa.3.12.extract.trunc
  %.sroa.5.8.extract.trunc34 = trunc i64 %.sroa.2.0.copyload.i to i32
  %3 = icmp ne i32 %.sroa.5.8.extract.trunc34, %.sroa.3.8.extract.trunc
  %4 = or i1 %3, %.not.i33
  br i1 %4, label %.lr.ph, label %._crit_edge

.lr.ph:                                           ; preds = %2
  %5 = getelementptr inbounds nuw i8, ptr %.sroa.0.0.copyload.i, i64 56
  %6 = getelementptr inbounds nuw i8, ptr %.sroa.0.0.copyload.i, i64 16
  %.not.i = icmp ne i8 %.sroa.3.12.extract.trunc, 0
  br label %7

._crit_edge:                                      ; preds = %_ZN15obj_equiv_classI4expr11ast_managerE8iteratorppEv.exit, %2
  %.0.lcssa = phi ptr [ null, %2 ], [ %.1, %_ZN15obj_equiv_classI4expr11ast_managerE8iteratorppEv.exit ]
  ret ptr %.0.lcssa

7:                                                ; preds = %.lr.ph, %_ZN15obj_equiv_classI4expr11ast_managerE8iteratorppEv.exit
  %.sroa.5.8.extract.trunc38 = phi i32 [ %.sroa.5.8.extract.trunc34, %.lr.ph ], [ %.0.i.i, %_ZN15obj_equiv_classI4expr11ast_managerE8iteratorppEv.exit ]
  %.037 = phi ptr [ null, %.lr.ph ], [ %.1, %_ZN15obj_equiv_classI4expr11ast_managerE8iteratorppEv.exit ]
  %.01636 = phi i32 [ 0, %.lr.ph ], [ %.117, %_ZN15obj_equiv_classI4expr11ast_managerE8iteratorppEv.exit ]
  %.sroa.5.035 = phi i64 [ %.sroa.2.0.copyload.i, %.lr.ph ], [ %.sroa.5.8.insert.ext, %_ZN15obj_equiv_classI4expr11ast_managerE8iteratorppEv.exit ]
  %8 = load ptr, ptr %5, align 8, !tbaa !9
  %.sroa.5.8.extract.trunc.mask = and i64 %.sroa.5.035, 4294967295
  %9 = getelementptr inbounds nuw ptr, ptr %8, i64 %.sroa.5.8.extract.trunc.mask
  %10 = load ptr, ptr %9, align 8, !tbaa !15
  %11 = tail call noundef zeroext i1 @_ZNK11ast_manager8is_valueEP4expr(ptr noundef nonnull align 8 dereferenceable(976) %1, ptr noundef %10)
  br i1 %11, label %15, label %12

12:                                               ; preds = %7
  %13 = tail call noundef i32 @_Z13get_num_exprsP4expr(ptr noundef %10)
  %.not = icmp eq ptr %.037, null
  %14 = icmp ugt i32 %.01636, %13
  %or.cond = select i1 %.not, i1 true, i1 %14
  %spec.select = select i1 %or.cond, i32 %13, i32 %.01636
  %spec.select18 = select i1 %or.cond, ptr %10, ptr %.037
  br label %15

15:                                               ; preds = %12, %7
  %.117 = phi i32 [ %.01636, %7 ], [ %spec.select, %12 ]
  %.1 = phi ptr [ %.037, %7 ], [ %spec.select18, %12 ]
  %16 = load ptr, ptr %.sroa.0.0.copyload.i, align 8, !tbaa !44
  %17 = icmp eq ptr %16, null
  br i1 %17, label %_ZN15obj_equiv_classI4expr11ast_managerE8iteratorppEv.exit, label %_ZNK16basic_union_find12get_num_varsEv.exit.i.i

_ZNK16basic_union_find12get_num_varsEv.exit.i.i:  ; preds = %15
  %18 = getelementptr inbounds i8, ptr %16, i64 -4
  %19 = load i32, ptr %18, align 4, !tbaa !13
  %.not.i.i = icmp ugt i32 %19, %.sroa.5.8.extract.trunc38
  br i1 %.not.i.i, label %20, label %_ZN15obj_equiv_classI4expr11ast_managerE8iteratorppEv.exit

20:                                               ; preds = %_ZNK16basic_union_find12get_num_varsEv.exit.i.i
  %21 = load ptr, ptr %6, align 8, !tbaa !44
  %22 = getelementptr inbounds nuw i32, ptr %21, i64 %.sroa.5.8.extract.trunc.mask
  %23 = load i32, ptr %22, align 4, !tbaa !13
  br label %_ZN15obj_equiv_classI4expr11ast_managerE8iteratorppEv.exit

_ZN15obj_equiv_classI4expr11ast_managerE8iteratorppEv.exit: ; preds = %15, %_ZNK16basic_union_find12get_num_varsEv.exit.i.i, %20
  %.0.i.i = phi i32 [ %23, %20 ], [ %.sroa.5.8.extract.trunc38, %_ZNK16basic_union_find12get_num_varsEv.exit.i.i ], [ %.sroa.5.8.extract.trunc38, %15 ]
  %.sroa.5.8.insert.ext = zext i32 %.0.i.i to i64
  %24 = icmp ne i32 %.0.i.i, %.sroa.3.8.extract.trunc
  %25 = or i1 %24, %.not.i
  br i1 %25, label %7, label %._crit_edge
}